; ModuleID = '55/252.c'
source_filename = "55/252.c"
target datalayout = "e-m:e-p270:32:32-p271:32:32-p272:64:64-i64:64-f80:128-n8:16:32:64-S128"
target triple = "x86_64-pc-linux-gnu"

@__const.main.c = private unnamed_addr constant [36 x i8] c"0123456789ABCDEFGHIJKLMNOPQRSTUVWXYZ", align 16
@.str = private unnamed_addr constant [9 x i8] c"%d %s %d\00", align 1
@.str.1 = private unnamed_addr constant [3 x i8] c"%c\00", align 1
@.str.2 = private unnamed_addr constant [2 x i8] c"\0A\00", align 1

; Function Attrs: noinline nounwind uwtable
define dso_local void @main() #0 {
  %1 = alloca i32, align 4
  %2 = alloca i32, align 4
  %3 = alloca i32, align 4
  %4 = alloca i32, align 4
  %5 = alloca i32, align 4
  %6 = alloca i32, align 4
  %7 = alloca i32, align 4
  %8 = alloca i32, align 4
  %9 = alloca [100 x i32], align 16
  %10 = alloca i32, align 4
  %11 = alloca i64, align 8
  %12 = alloca [100 x i8], align 16
  %13 = alloca [36 x i8], align 16
  store i32 1, i32* %5, align 4
  store i32 0, i32* %10, align 4
  store i64 0, i64* %11, align 8
  %14 = bitcast [36 x i8]* %13 to i8*
  call void @llvm.memcpy.p0i8.p0i8.i64(i8* align 16 %14, i8* align 16 getelementptr inbounds ([36 x i8], [36 x i8]* @__const.main.c, i32 0, i32 0), i64 36, i1 false)
  %15 = getelementptr inbounds [100 x i8], [100 x i8]* %12, i64 0, i64 0
  %16 = call i32 (i8*, ...) @__isoc99_scanf(i8* getelementptr inbounds ([9 x i8], [9 x i8]* @.str, i64 0, i64 0), i32* %1, i8* %15, i32* %2)
  %17 = getelementptr inbounds [100 x i8], [100 x i8]* %12, i64 0, i64 0
  %18 = call i64 @strlen(i8* %17) #4
  %19 = trunc i64 %18 to i32
  store i32 %19, i32* %4, align 4
  store i32 0, i32* %6, align 4
  br label %20

20:                                               ; preds = %50, %0
  %21 = load i32, i32* %6, align 4
  %22 = load i32, i32* %4, align 4
  %23 = icmp slt i32 %21, %22
  br i1 %23, label %24, label %53

24:                                               ; preds = %20
  %25 = load i32, i32* %6, align 4
  %26 = sext i32 %25 to i64
  %27 = getelementptr inbounds [100 x i8], [100 x i8]* %12, i64 0, i64 %26
  %28 = load i8, i8* %27, align 1
  %29 = sext i8 %28 to i32
  %30 = icmp sge i32 %29, 97
  br i1 %30, label %31, label %49

31:                                               ; preds = %24
  %32 = load i32, i32* %6, align 4
  %33 = sext i32 %32 to i64
  %34 = getelementptr inbounds [100 x i8], [100 x i8]* %12, i64 0, i64 %33
  %35 = load i8, i8* %34, align 1
  %36 = sext i8 %35 to i32
  %37 = icmp sle i32 %36, 122
  br i1 %37, label %38, label %49

38:                                               ; preds = %31
  %39 = load i32, i32* %6, align 4
  %40 = sext i32 %39 to i64
  %41 = getelementptr inbounds [100 x i8], [100 x i8]* %12, i64 0, i64 %40
  %42 = load i8, i8* %41, align 1
  %43 = sext i8 %42 to i32
  %44 = sub nsw i32 %43, 32
  %45 = trunc i32 %44 to i8
  %46 = load i32, i32* %6, align 4
  %47 = sext i32 %46 to i64
  %48 = getelementptr inbounds [100 x i8], [100 x i8]* %12, i64 0, i64 %47
  store i8 %45, i8* %48, align 1
  br label %49

49:                                               ; preds = %38, %31, %24
  br label %50

50:                                               ; preds = %49
  %51 = load i32, i32* %6, align 4
  %52 = add nsw i32 %51, 1
  store i32 %52, i32* %6, align 4
  br label %20

53:                                               ; preds = %20
  %54 = load i32, i32* %4, align 4
  %55 = sub nsw i32 %54, 1
  store i32 %55, i32* %6, align 4
  br label %56

56:                                               ; preds = %91, %53
  %57 = load i32, i32* %6, align 4
  %58 = icmp sge i32 %57, 0
  br i1 %58, label %59, label %94

59:                                               ; preds = %56
  store i32 0, i32* %7, align 4
  br label %60

60:                                               ; preds = %87, %59
  %61 = load i32, i32* %7, align 4
  %62 = load i32, i32* %1, align 4
  %63 = icmp slt i32 %61, %62
  br i1 %63, label %64, label %90

64:                                               ; preds = %60
  %65 = load i32, i32* %7, align 4
  %66 = sext i32 %65 to i64
  %67 = getelementptr inbounds [36 x i8], [36 x i8]* %13, i64 0, i64 %66
  %68 = load i8, i8* %67, align 1
  %69 = sext i8 %68 to i32
  %70 = load i32, i32* %6, align 4
  %71 = sext i32 %70 to i64
  %72 = getelementptr inbounds [100 x i8], [100 x i8]* %12, i64 0, i64 %71
  %73 = load i8, i8* %72, align 1
  %74 = sext i8 %73 to i32
  %75 = icmp eq i32 %69, %74
  br i1 %75, label %76, label %86

76:                                               ; preds = %64
  %77 = load i64, i64* %11, align 8
  %78 = load i32, i32* %5, align 4
  %79 = load i32, i32* %7, align 4
  %80 = mul nsw i32 %78, %79
  %81 = sext i32 %80 to i64
  %82 = add nsw i64 %77, %81
  store i64 %82, i64* %11, align 8
  %83 = load i32, i32* %5, align 4
  %84 = load i32, i32* %1, align 4
  %85 = mul nsw i32 %83, %84
  store i32 %85, i32* %5, align 4
  br label %86

86:                                               ; preds = %76, %64
  br label %87

87:                                               ; preds = %86
  %88 = load i32, i32* %7, align 4
  %89 = add nsw i32 %88, 1
  store i32 %89, i32* %7, align 4
  br label %60

90:                                               ; preds = %60
  br label %91

91:                                               ; preds = %90
  %92 = load i32, i32* %6, align 4
  %93 = add nsw i32 %92, -1
  store i32 %93, i32* %6, align 4
  br label %56

94:                                               ; preds = %56
  br label %95

95:                                               ; preds = %100, %94
  %96 = load i64, i64* %11, align 8
  %97 = load i32, i32* %2, align 4
  %98 = sext i32 %97 to i64
  %99 = icmp sge i64 %96, %98
  br i1 %99, label %100, label %119

100:                                              ; preds = %95
  %101 = load i64, i64* %11, align 8
  %102 = load i32, i32* %2, align 4
  %103 = sext i32 %102 to i64
  %104 = srem i64 %101, %103
  %105 = trunc i64 %104 to i32
  store i32 %105, i32* %8, align 4
  %106 = load i32, i32* %8, align 4
  %107 = sext i32 %106 to i64
  %108 = getelementptr inbounds [36 x i8], [36 x i8]* %13, i64 0, i64 %107
  %109 = load i8, i8* %108, align 1
  %110 = sext i8 %109 to i32
  %111 = load i32, i32* %10, align 4
  %112 = add nsw i32 %111, 1
  store i32 %112, i32* %10, align 4
  %113 = sext i32 %111 to i64
  %114 = getelementptr inbounds [100 x i32], [100 x i32]* %9, i64 0, i64 %113
  store i32 %110, i32* %114, align 4
  %115 = load i64, i64* %11, align 8
  %116 = load i32, i32* %2, align 4
  %117 = sext i32 %116 to i64
  %118 = sdiv i64 %115, %117
  store i64 %118, i64* %11, align 8
  br label %95

119:                                              ; preds = %95
  %120 = load i64, i64* %11, align 8
  %121 = getelementptr inbounds [36 x i8], [36 x i8]* %13, i64 0, i64 %120
  %122 = load i8, i8* %121, align 1
  %123 = sext i8 %122 to i32
  %124 = load i32, i32* %10, align 4
  %125 = sext i32 %124 to i64
  %126 = getelementptr inbounds [100 x i32], [100 x i32]* %9, i64 0, i64 %125
  store i32 %123, i32* %126, align 4
  %127 = load i32, i32* %10, align 4
  store i32 %127, i32* %6, align 4
  br label %128

128:                                              ; preds = %137, %119
  %129 = load i32, i32* %6, align 4
  %130 = icmp sge i32 %129, 0
  br i1 %130, label %131, label %140

131:                                              ; preds = %128
  %132 = load i32, i32* %6, align 4
  %133 = sext i32 %132 to i64
  %134 = getelementptr inbounds [100 x i32], [100 x i32]* %9, i64 0, i64 %133
  %135 = load i32, i32* %134, align 4
  %136 = call i32 (i8*, ...) @printf(i8* getelementptr inbounds ([3 x i8], [3 x i8]* @.str.1, i64 0, i64 0), i32 %135)
  br label %137

137:                                              ; preds = %131
  %138 = load i32, i32* %6, align 4
  %139 = add nsw i32 %138, -1
  store i32 %139, i32* %6, align 4
  br label %128

140:                                              ; preds = %128
  %141 = call i32 (i8*, ...) @printf(i8* getelementptr inbounds ([2 x i8], [2 x i8]* @.str.2, i64 0, i64 0))
  ret void
}

; Function Attrs: argmemonly nounwind willreturn
declare void @llvm.memcpy.p0i8.p0i8.i64(i8* noalias nocapture writeonly, i8* noalias nocapture readonly, i64, i1 immarg) #1

declare dso_local i32 @__isoc99_scanf(i8*, ...) #2

; Function Attrs: nounwind readonly
declare dso_local i64 @strlen(i8*) #3

declare dso_local i32 @printf(i8*, ...) #2


!llvm.module.flags = !{!0}
!llvm.ident = !{!1}

!0 = !{i32 1, !"wchar_size", i32 4}
!1 = !{!"clang version 10.0.0-4ubuntu1 "}
